; Function Attrs: mustprogress nofree norecurse nosync nounwind willreturn memory(argmem: read) uwtable
define dso_local range(i64 -32768, 32768) i64 @int2xor(ptr noundef readonly captures(none) %0) local_unnamed_addr #7 {
  %2 = getelementptr inbounds nuw i8, ptr %0, i64 32
  %3 = load i64, ptr %2, align 8
  %4 = getelementptr inbounds nuw i8, ptr %0, i64 48
  %5 = load i64, ptr %4, align 8
  %6 = xor i64 %5, %3
  %sext = shl i64 %6, 48
  %7 = ashr exact i64 %sext, 48
  ret i64 %7
}